target datalayout = "e-m:e-p270:32:32-p271:32:32-p272:64:64-i64:64-i128:128-f80:128-n8:16:32:64-S128"
target triple = "x86_64-pc-linux-gnu"

%struct.bf_t = type { ptr, i32, i64, i64, ptr }

; Function Attrs: inlinehint nounwind uwtable
define internal i32 @ctz64(i64 noundef %0) #3 {
  %2 = alloca i64, align 8
  store i64 %0, ptr %2, align 8, !tbaa !27
  %3 = load i64, ptr %2, align 8, !tbaa !27
  %4 = call i64 @llvm.cttz.i64(i64 %3, i1 true)
  %5 = trunc i64 %4 to i32
  ret i32 %5
}

; Function Attrs: inlinehint nounwind uwtable
define internal i32 @ctz(i64 noundef %0) #3 {
  %2 = alloca i32, align 4
  %3 = alloca i64, align 8
  store i64 %0, ptr %3, align 8, !tbaa !27
  %4 = load i64, ptr %3, align 8, !tbaa !27
  %5 = icmp eq i64 %4, 0
  br i1 %5, label %6, label %7

6:                                                ; preds = %1
  store i32 64, ptr %2, align 4
  br label %10

7:                                                ; preds = %1
  %8 = load i64, ptr %3, align 8, !tbaa !27
  %9 = call i32 @ctz64(i64 noundef %8)
  store i32 %9, ptr %2, align 4
  br label %10

10:                                               ; preds = %7, %6
  %11 = load i32, ptr %2, align 4
  ret i32 %11
}

; Function Attrs: nounwind uwtable
define dso_local i64 @bf_get_exp_min(ptr noundef %0) #0 {
  %2 = alloca i64, align 8
  %3 = alloca ptr, align 8
  %4 = alloca i64, align 8
  %5 = alloca i64, align 8
  %6 = alloca i32, align 4
  %7 = alloca i32, align 4
  store ptr %0, ptr %3, align 8, !tbaa !12
  call void @llvm.lifetime.start.p0(i64 8, ptr %4) #10
  call void @llvm.lifetime.start.p0(i64 8, ptr %5) #10
  call void @llvm.lifetime.start.p0(i64 4, ptr %6) #10
  store i64 0, ptr %4, align 8, !tbaa !27
  br label %8

8:                                                ; preds = %40, %1
  %9 = load i64, ptr %4, align 8, !tbaa !27
  %10 = load ptr, ptr %3, align 8, !tbaa !12
  %11 = getelementptr inbounds nuw %struct.bf_t, ptr %10, i32 0, i32 3
  %12 = load i64, ptr %11, align 8, !tbaa !25
  %13 = icmp ult i64 %9, %12
  br i1 %13, label %14, label %43

14:                                               ; preds = %8
  %15 = load ptr, ptr %3, align 8, !tbaa !12
  %16 = getelementptr inbounds nuw %struct.bf_t, ptr %15, i32 0, i32 4
  %17 = load ptr, ptr %16, align 8, !tbaa !26
  %18 = load i64, ptr %4, align 8, !tbaa !27
  %19 = getelementptr inbounds i64, ptr %17, i64 %18
  %20 = load i64, ptr %19, align 8, !tbaa !27
  store i64 %20, ptr %5, align 8, !tbaa !27
  %21 = load i64, ptr %5, align 8, !tbaa !27
  %22 = icmp ne i64 %21, 0
  br i1 %22, label %23, label %39

23:                                               ; preds = %14
  %24 = load i64, ptr %5, align 8, !tbaa !27
  %25 = call i32 @ctz(i64 noundef %24)
  store i32 %25, ptr %6, align 4, !tbaa !29
  %26 = load ptr, ptr %3, align 8, !tbaa !12
  %27 = getelementptr inbounds nuw %struct.bf_t, ptr %26, i32 0, i32 2
  %28 = load i64, ptr %27, align 8, !tbaa !24
  %29 = load ptr, ptr %3, align 8, !tbaa !12
  %30 = getelementptr inbounds nuw %struct.bf_t, ptr %29, i32 0, i32 3
  %31 = load i64, ptr %30, align 8, !tbaa !25
  %32 = load i64, ptr %4, align 8, !tbaa !27
  %33 = sub i64 %31, %32
  %34 = mul i64 %33, 64
  %35 = sub i64 %28, %34
  %36 = load i32, ptr %6, align 4, !tbaa !29
  %37 = sext i32 %36 to i64
  %38 = add i64 %35, %37
  store i64 %38, ptr %2, align 8
  store i32 1, ptr %7, align 4
  br label %44

39:                                               ; preds = %14
  br label %40

40:                                               ; preds = %39
  %41 = load i64, ptr %4, align 8, !tbaa !27
  %42 = add i64 %41, 1
  store i64 %42, ptr %4, align 8, !tbaa !27
  br label %8, !llvm.loop !63

43:                                               ; preds = %8
  store i64 0, ptr %2, align 8
  store i32 1, ptr %7, align 4
  br label %44

44:                                               ; preds = %43, %23
  call void @llvm.lifetime.end.p0(i64 4, ptr %6) #10
  call void @llvm.lifetime.end.p0(i64 8, ptr %5) #10
  call void @llvm.lifetime.end.p0(i64 8, ptr %4) #10
  %45 = load i64, ptr %2, align 8
  ret i64 %45
}