; Function Attrs: nofree norecurse nosync nounwind memory(read, inaccessiblemem: none) uwtable
define dso_local i64 @bf_get_exp_min(ptr noundef readonly captures(none) %0) local_unnamed_addr #5 {
  %2 = getelementptr inbounds nuw i8, ptr %0, i64 24
  %3 = load i64, ptr %2, align 8, !tbaa !32
  %.not18 = icmp eq i64 %3, 0
  br i1 %.not18, label %.loopexit, label %.lr.ph

.lr.ph:                                           ; preds = %1
  %4 = getelementptr inbounds nuw i8, ptr %0, i64 32
  %5 = load ptr, ptr %4, align 8, !tbaa !29
  br label %6

6:                                                ; preds = %.lr.ph, %15
  %.01117 = phi i64 [ 0, %.lr.ph ], [ %16, %15 ]
  %7 = getelementptr inbounds i64, ptr %5, i64 %.01117
  %8 = load i64, ptr %7, align 8, !tbaa !33
  %.not = icmp eq i64 %8, 0
  br i1 %.not, label %15, label %9

9:                                                ; preds = %6
  %10 = tail call range(i64 0, 65) i64 @llvm.cttz.i64(i64 range(i64 1, 0) %8, i1 true)
  %11 = getelementptr inbounds nuw i8, ptr %0, i64 16
  %12 = load i64, ptr %11, align 8, !tbaa !31
  %.neg = sub i64 %.01117, %3
  %.neg13 = shl i64 %.neg, 6
  %13 = or disjoint i64 %10, %.neg13
  %14 = add i64 %13, %12
  br label %.loopexit

15:                                               ; preds = %6
  %16 = add nuw i64 %.01117, 1
  %exitcond.not = icmp eq i64 %16, %3
  br i1 %exitcond.not, label %.loopexit, label %6, !llvm.loop !80

.loopexit:                                        ; preds = %15, %1, %9
  %.0 = phi i64 [ %14, %9 ], [ 0, %1 ], [ 0, %15 ]
  ret i64 %.0
}